	.file	"reg9.c"
	.text
	.section	.rodata
.LC0:
	.string	"sum is %d\n"
	.text
	.globl	main
	.type	main, @function
main:
.LFB0:
	.cfi_startproc
	leal	4(%esp), %ecx
	.cfi_def_cfa 1, 0
	andl	$-16, %esp
	pushl	-4(%ecx)
	pushl	%ebp
	.cfi_escape 0x10,0x5,0x2,0x75,0
	movl	%esp, %ebp
	pushl	%ebx
	pushl	%ecx
	.cfi_escape 0xf,0x3,0x75,0x78,0x6
	.cfi_escape 0x10,0x3,0x2,0x75,0x7c
	subl	$16, %esp
	call	__x86.get_pc_thunk.dx
	addl	$_GLOBAL_OFFSET_TABLE_, %edx
	movl	$1, -16(%ebp)
	movl	$0, -12(%ebp)
	movl	-16(%ebp), %eax
#APP
# 6 "reg9.c" 1
	addl $2, %eax
# 0 "" 2
#NO_APP
	movl	%eax, -12(%ebp)
	subl	$8, %esp
	pushl	-12(%ebp)
	leal	.LC0@GOTOFF(%edx), %eax
	pushl	%eax
	movl	%edx, %ebx
	call	printf@PLT
	addl	$16, %esp
	nop
	leal	-8(%ebp), %esp
	popl	%ecx
	.cfi_restore 1
	.cfi_def_cfa 1, 0
	popl	%ebx
	.cfi_restore 3
	popl	%ebp
	.cfi_restore 5
	leal	-4(%ecx), %esp
	.cfi_def_cfa 4, 4
	ret
	.cfi_endproc
.LFE0:
	.size	main, .-main
	.section	.text.__x86.get_pc_thunk.dx,"axG",@progbits,__x86.get_pc_thunk.dx,comdat
	.globl	__x86.get_pc_thunk.dx
	.hidden	__x86.get_pc_thunk.dx
	.type	__x86.get_pc_thunk.dx, @function
__x86.get_pc_thunk.dx:
.LFB1:
	.cfi_startproc
	movl	(%esp), %edx
	ret
	.cfi_endproc
.LFE1:
	.ident	"GCC: (Ubuntu 7.4.0-1ubuntu1~18.04.1) 7.4.0"
	.section	.note.GNU-stack,"",@progbits
